target datalayout = "e-m:e-p270:32:32-p271:32:32-p272:64:64-i64:64-i128:128-f80:128-n8:16:32:64-S128"
target triple = "x86_64-pc-linux-gnu"

%struct.rhash_info = type { i32, i32, i64, ptr, ptr }

; Function Attrs: nounwind uwtable
define dso_local ptr @rhash_get_magnet_name(i32 noundef %0) #0 {
  %2 = alloca i32, align 4
  %3 = alloca ptr, align 8
  store i32 %0, ptr %2, align 4, !tbaa !4
  call void @llvm.lifetime.start.p0(i64 8, ptr %3) #8
  %4 = load i32, ptr %2, align 4, !tbaa !4
  %5 = call ptr @rhash_info_by_id(i32 noundef %4)
  store ptr %5, ptr %3, align 8, !tbaa !50
  %6 = load ptr, ptr %3, align 8, !tbaa !50
  %7 = icmp ne ptr %6, null
  br i1 %7, label %8, label %12

8:                                                ; preds = %1
  %9 = load ptr, ptr %3, align 8, !tbaa !50
  %10 = getelementptr inbounds nuw %struct.rhash_info, ptr %9, i32 0, i32 4
  %11 = load ptr, ptr %10, align 8, !tbaa !53
  br label %13

12:                                               ; preds = %1
  br label %13

13:                                               ; preds = %12, %8
  %14 = phi ptr [ %11, %8 ], [ null, %12 ]
  call void @llvm.lifetime.end.p0(i64 8, ptr %3) #8
  ret ptr %14
}